; Function Attrs: mustprogress uwtable
define hidden noundef zeroext i1 @_ZN4lean24is_do_notation_joinpointERKNS_4nameE(ptr noundef nonnull readonly align 8 captures(none) dereferenceable(8) %0) local_unnamed_addr #0 personality ptr @__gxx_personality_v0 {
  %2 = alloca %"class.lean::name", align 8
  call void @llvm.lifetime.start.p0(i64 8, ptr nonnull %2) #17
  tail call void @llvm.experimental.noalias.scope.decl(metadata !12)
  %3 = load ptr, ptr %0, align 8, !tbaa !3, !noalias !12
  %4 = ptrtoint ptr %3 to i64
  %5 = and i64 %4, 1
  %.not.i.i.i = icmp eq i64 %5, 0
  br i1 %.not.i.i.i, label %6, label %_ZN4lean18erase_macro_scopesERKNS_4nameE.exit

6:                                                ; preds = %1
  %.val.i.i.i.i = load i32, ptr %3, align 4, !tbaa !8, !noalias !12
  %7 = icmp sgt i32 %.val.i.i.i.i, 0
  br i1 %7, label %8, label %10, !prof !11

8:                                                ; preds = %6
  %9 = add nuw nsw i32 %.val.i.i.i.i, 1
  store i32 %9, ptr %3, align 4, !tbaa !8, !noalias !12
  br label %_ZN4lean18erase_macro_scopesERKNS_4nameE.exit

10:                                               ; preds = %6
  %.not.i.i.i.i = icmp eq i32 %.val.i.i.i.i, 0
  br i1 %.not.i.i.i.i, label %_ZN4lean18erase_macro_scopesERKNS_4nameE.exit, label %11

11:                                               ; preds = %10
  tail call void @lean_inc_ref_cold(ptr noundef nonnull %3), !noalias !12
  %.pre.i.i = load ptr, ptr %0, align 8, !tbaa !3, !noalias !12
  br label %_ZN4lean18erase_macro_scopesERKNS_4nameE.exit

_ZN4lean18erase_macro_scopesERKNS_4nameE.exit:    ; preds = %1, %8, %10, %11
  %12 = phi ptr [ %3, %1 ], [ %3, %8 ], [ %3, %10 ], [ %.pre.i.i, %11 ]
  %13 = tail call ptr @lean_erase_macro_scopes(ptr noundef %12), !noalias !12
  store ptr %13, ptr %2, align 8, !tbaa !3, !alias.scope !12
  %14 = load ptr, ptr %0, align 8, !tbaa !3
  %15 = invoke zeroext i8 @lean_name_eq(ptr noundef %13, ptr noundef %14)
          to label %16 unwind label %29

16:                                               ; preds = %_ZN4lean18erase_macro_scopesERKNS_4nameE.exit
  %17 = ptrtoint ptr %13 to i64
  %18 = and i64 %17, 1
  %.not.i.i = icmp eq i64 %18, 0
  br i1 %.not.i.i, label %19, label %_ZN4lean10object_refD2Ev.exit

19:                                               ; preds = %16
  %20 = load i32, ptr %13, align 4, !tbaa !8
  %21 = icmp sgt i32 %20, 1
  br i1 %21, label %22, label %24, !prof !11

22:                                               ; preds = %19
  %23 = add nsw i32 %20, -1
  store i32 %23, ptr %13, align 4, !tbaa !8
  br label %_ZN4lean10object_refD2Ev.exit

24:                                               ; preds = %19
  %.not.i.i.i3 = icmp eq i32 %20, 0
  br i1 %.not.i.i.i3, label %_ZN4lean10object_refD2Ev.exit, label %25

25:                                               ; preds = %24
  invoke void @lean_dec_ref_cold(ptr noundef nonnull %13)
          to label %_ZN4lean10object_refD2Ev.exit unwind label %26

26:                                               ; preds = %25
  %27 = landingpad { ptr, i32 }
          catch ptr null
  %28 = extractvalue { ptr, i32 } %27, 0
  tail call void @__clang_call_terminate(ptr %28) #18
  unreachable

_ZN4lean10object_refD2Ev.exit:                    ; preds = %16, %22, %24, %25
  %.not.i = icmp eq i8 %15, 0
  call void @llvm.lifetime.end.p0(i64 8, ptr nonnull %2) #17
  ret i1 %.not.i

29:                                               ; preds = %_ZN4lean18erase_macro_scopesERKNS_4nameE.exit
  %30 = landingpad { ptr, i32 }
          cleanup
  call void @_ZN4lean10object_refD2Ev(ptr noundef nonnull align 8 dereferenceable(8) %2) #17
  call void @llvm.lifetime.end.p0(i64 8, ptr nonnull %2) #17
  resume { ptr, i32 } %30
}